; Function Attrs: mustprogress nounwind uwtable
define hidden void @_ZN21pb2bv_model_converterD2Ev(ptr noundef nonnull align 8 captures(none) dereferenceable(48) initializes((0, 8)) %0) unnamed_addr #6 align 2 personality ptr @__gxx_personality_v0 {
  store ptr getelementptr inbounds nuw inrange(-16, 88) (i8, ptr @_ZTV21pb2bv_model_converter, i64 16), ptr %0, align 8, !tbaa !14
  %2 = getelementptr inbounds nuw i8, ptr %0, i64 40
  %3 = load ptr, ptr %2, align 8, !tbaa !18
  %4 = icmp eq ptr %3, null
  br i1 %4, label %_ZN6vectorISt4pairIP9func_declS2_ELb0EjED2Ev.exit, label %_ZN6vectorISt4pairIP9func_declS2_ELb0EjE3endEv.exit

_ZN6vectorISt4pairIP9func_declS2_ELb0EjE3endEv.exit: ; preds = %1
  %5 = getelementptr inbounds i8, ptr %3, i64 -4
  %6 = load i32, ptr %5, align 4, !tbaa !39
  %7 = zext i32 %6 to i64
  %8 = getelementptr inbounds nuw %"struct.std::pair", ptr %3, i64 %7
  %.not12 = icmp eq i32 %6, 0
  br i1 %.not12, label %._crit_edge.thread18, label %.lr.ph

.lr.ph:                                           ; preds = %_ZN6vectorISt4pairIP9func_declS2_ELb0EjE3endEv.exit
  %9 = getelementptr inbounds nuw i8, ptr %0, i64 32
  br label %15

._crit_edge:                                      ; preds = %_ZN11ast_manager7dec_refEP3ast.exit11
  %.pre14 = load ptr, ptr %2, align 8, !tbaa !18
  %.not.i.i = icmp eq ptr %.pre14, null
  br i1 %.not.i.i, label %_ZN6vectorISt4pairIP9func_declS2_ELb0EjED2Ev.exit, label %._crit_edge.thread18

._crit_edge.thread18:                             ; preds = %_ZN6vectorISt4pairIP9func_declS2_ELb0EjE3endEv.exit, %._crit_edge
  %10 = phi ptr [ %.pre14, %._crit_edge ], [ %3, %_ZN6vectorISt4pairIP9func_declS2_ELb0EjE3endEv.exit ]
  %11 = getelementptr inbounds i8, ptr %10, i64 -8
  invoke void @_ZN6memory10deallocateEPv(ptr noundef nonnull %11)
          to label %_ZN6vectorISt4pairIP9func_declS2_ELb0EjED2Ev.exit unwind label %12

12:                                               ; preds = %._crit_edge.thread18
  %13 = landingpad { ptr, i32 }
          catch ptr null
  %14 = extractvalue { ptr, i32 } %13, 0
  tail call void @__clang_call_terminate(ptr %14) #19
  unreachable

_ZN6vectorISt4pairIP9func_declS2_ELb0EjED2Ev.exit: ; preds = %1, %._crit_edge, %._crit_edge.thread18
  ret void

15:                                               ; preds = %.lr.ph, %_ZN11ast_manager7dec_refEP3ast.exit11
  %.013 = phi ptr [ %3, %.lr.ph ], [ %33, %_ZN11ast_manager7dec_refEP3ast.exit11 ]
  %16 = load ptr, ptr %9, align 8, !tbaa !50
  %17 = load ptr, ptr %.013, align 8, !tbaa !53
  %.not.i = icmp eq ptr %17, null
  br i1 %.not.i, label %_ZN11ast_manager7dec_refEP3ast.exit, label %18

18:                                               ; preds = %15
  %19 = getelementptr inbounds nuw i8, ptr %17, i64 8
  %20 = load i32, ptr %19, align 4, !tbaa !41
  %21 = add i32 %20, -1
  store i32 %21, ptr %19, align 4, !tbaa !41
  %22 = icmp eq i32 %21, 0
  br i1 %22, label %23, label %_ZN11ast_manager7dec_refEP3ast.exit

23:                                               ; preds = %18
  invoke void @_ZN11ast_manager11delete_nodeEP3ast(ptr noundef nonnull align 8 dereferenceable(976) %16, ptr noundef nonnull %17)
          to label %._ZN11ast_manager7dec_refEP3ast.exit_crit_edge unwind label %34

._ZN11ast_manager7dec_refEP3ast.exit_crit_edge:   ; preds = %23
  %.pre = load ptr, ptr %9, align 8, !tbaa !50
  br label %_ZN11ast_manager7dec_refEP3ast.exit

_ZN11ast_manager7dec_refEP3ast.exit:              ; preds = %._ZN11ast_manager7dec_refEP3ast.exit_crit_edge, %18, %15
  %24 = phi ptr [ %.pre, %._ZN11ast_manager7dec_refEP3ast.exit_crit_edge ], [ %16, %18 ], [ %16, %15 ]
  %25 = getelementptr inbounds nuw i8, ptr %.013, i64 8
  %26 = load ptr, ptr %25, align 8, !tbaa !55
  %.not.i9 = icmp eq ptr %26, null
  br i1 %.not.i9, label %_ZN11ast_manager7dec_refEP3ast.exit11, label %27

27:                                               ; preds = %_ZN11ast_manager7dec_refEP3ast.exit
  %28 = getelementptr inbounds nuw i8, ptr %26, i64 8
  %29 = load i32, ptr %28, align 4, !tbaa !41
  %30 = add i32 %29, -1
  store i32 %30, ptr %28, align 4, !tbaa !41
  %31 = icmp eq i32 %30, 0
  br i1 %31, label %32, label %_ZN11ast_manager7dec_refEP3ast.exit11

32:                                               ; preds = %27
  invoke void @_ZN11ast_manager11delete_nodeEP3ast(ptr noundef nonnull align 8 dereferenceable(976) %24, ptr noundef nonnull %26)
          to label %_ZN11ast_manager7dec_refEP3ast.exit11 unwind label %34

_ZN11ast_manager7dec_refEP3ast.exit11:            ; preds = %27, %_ZN11ast_manager7dec_refEP3ast.exit, %32
  %33 = getelementptr inbounds nuw i8, ptr %.013, i64 16
  %.not = icmp eq ptr %33, %8
  br i1 %.not, label %._crit_edge, label %15

34:                                               ; preds = %32, %23
  %35 = landingpad { ptr, i32 }
          catch ptr null
  %36 = extractvalue { ptr, i32 } %35, 0
  tail call void @__clang_call_terminate(ptr %36) #19
  unreachable
}